; ModuleID = '28/799.c'
source_filename = "28/799.c"
target datalayout = "e-m:e-p270:32:32-p271:32:32-p272:64:64-i64:64-f80:128-n8:16:32:64-S128"
target triple = "x86_64-pc-linux-gnu"

@.str = private unnamed_addr constant [3 x i8] c"%d\00", align 1
@.str.1 = private unnamed_addr constant [4 x i8] c",%d\00", align 1

; Function Attrs: noinline nounwind uwtable
define dso_local void @main() #0 {
  %1 = alloca [10000 x i8], align 16
  %2 = alloca i32, align 4
  %3 = alloca i32, align 4
  %4 = alloca i32, align 4
  %5 = alloca [302 x i32], align 16
  %6 = alloca i32, align 4
  store i32 0, i32* %3, align 4
  store i32 0, i32* %4, align 4
  %7 = getelementptr inbounds [10000 x i8], [10000 x i8]* %1, i64 0, i64 0
  %8 = call i32 (i8*, ...) bitcast (i32 (...)* @gets to i32 (i8*, ...)*)(i8* %7)
  store i32 0, i32* %2, align 4
  br label %9

9:                                                ; preds = %17, %0
  %10 = load i32, i32* %2, align 4
  %11 = sext i32 %10 to i64
  %12 = getelementptr inbounds [10000 x i8], [10000 x i8]* %1, i64 0, i64 %11
  %13 = load i8, i8* %12, align 1
  %14 = sext i8 %13 to i32
  %15 = icmp ne i32 %14, 0
  br i1 %15, label %16, label %20

16:                                               ; preds = %9
  br label %17

17:                                               ; preds = %16
  %18 = load i32, i32* %2, align 4
  %19 = add nsw i32 %18, 1
  store i32 %19, i32* %2, align 4
  br label %9

20:                                               ; preds = %9
  %21 = load i32, i32* %2, align 4
  store i32 %21, i32* %6, align 4
  %22 = load i32, i32* %6, align 4
  %23 = sext i32 %22 to i64
  %24 = getelementptr inbounds [10000 x i8], [10000 x i8]* %1, i64 0, i64 %23
  store i8 32, i8* %24, align 1
  store i32 0, i32* %2, align 4
  br label %25

25:                                               ; preds = %56, %20
  %26 = load i32, i32* %2, align 4
  %27 = load i32, i32* %6, align 4
  %28 = icmp sle i32 %26, %27
  br i1 %28, label %29, label %59

29:                                               ; preds = %25
  %30 = load i32, i32* %2, align 4
  %31 = sext i32 %30 to i64
  %32 = getelementptr inbounds [10000 x i8], [10000 x i8]* %1, i64 0, i64 %31
  %33 = load i8, i8* %32, align 1
  %34 = sext i8 %33 to i32
  %35 = icmp ne i32 %34, 32
  br i1 %35, label %36, label %39

36:                                               ; preds = %29
  %37 = load i32, i32* %3, align 4
  %38 = add nsw i32 %37, 1
  store i32 %38, i32* %3, align 4
  br label %55

39:                                               ; preds = %29
  %40 = load i32, i32* %2, align 4
  %41 = sub nsw i32 %40, 1
  %42 = sext i32 %41 to i64
  %43 = getelementptr inbounds [10000 x i8], [10000 x i8]* %1, i64 0, i64 %42
  %44 = load i8, i8* %43, align 1
  %45 = sext i8 %44 to i32
  %46 = icmp ne i32 %45, 32
  br i1 %46, label %47, label %54

47:                                               ; preds = %39
  %48 = load i32, i32* %3, align 4
  %49 = load i32, i32* %4, align 4
  %50 = sext i32 %49 to i64
  %51 = getelementptr inbounds [302 x i32], [302 x i32]* %5, i64 0, i64 %50
  store i32 %48, i32* %51, align 4
  store i32 0, i32* %3, align 4
  %52 = load i32, i32* %4, align 4
  %53 = add nsw i32 %52, 1
  store i32 %53, i32* %4, align 4
  br label %54

54:                                               ; preds = %47, %39
  br label %55

55:                                               ; preds = %54, %36
  br label %56

56:                                               ; preds = %55
  %57 = load i32, i32* %2, align 4
  %58 = add nsw i32 %57, 1
  store i32 %58, i32* %2, align 4
  br label %25

59:                                               ; preds = %25
  %60 = getelementptr inbounds [302 x i32], [302 x i32]* %5, i64 0, i64 0
  %61 = load i32, i32* %60, align 16
  %62 = call i32 (i8*, ...) @printf(i8* getelementptr inbounds ([3 x i8], [3 x i8]* @.str, i64 0, i64 0), i32 %61)
  store i32 1, i32* %2, align 4
  br label %63

63:                                               ; preds = %73, %59
  %64 = load i32, i32* %2, align 4
  %65 = load i32, i32* %4, align 4
  %66 = icmp slt i32 %64, %65
  br i1 %66, label %67, label %76

67:                                               ; preds = %63
  %68 = load i32, i32* %2, align 4
  %69 = sext i32 %68 to i64
  %70 = getelementptr inbounds [302 x i32], [302 x i32]* %5, i64 0, i64 %69
  %71 = load i32, i32* %70, align 4
  %72 = call i32 (i8*, ...) @printf(i8* getelementptr inbounds ([4 x i8], [4 x i8]* @.str.1, i64 0, i64 0), i32 %71)
  br label %73

73:                                               ; preds = %67
  %74 = load i32, i32* %2, align 4
  %75 = add nsw i32 %74, 1
  store i32 %75, i32* %2, align 4
  br label %63

76:                                               ; preds = %63
  ret void
}

declare dso_local i32 @gets(...) #1

declare dso_local i32 @printf(i8*, ...) #1


!llvm.module.flags = !{!0}
!llvm.ident = !{!1}

!0 = !{i32 1, !"wchar_size", i32 4}
!1 = !{!"clang version 10.0.0-4ubuntu1 "}
